; Function Attrs: nounwind uwtable
define i32 @Abc_NtkLatchSweep(ptr noundef %0) local_unnamed_addr #0 {
  %2 = getelementptr inbounds nuw i8, ptr %0, i64 80
  %3 = load ptr, ptr %2, align 8, !tbaa !91
  %4 = getelementptr i8, ptr %3, i64 4
  %.val54 = load i32, ptr %4, align 4, !tbaa !26
  %5 = icmp sgt i32 %.val54, 0
  br i1 %5, label %.lr.ph, label %.critedge

.lr.ph:                                           ; preds = %1, %63
  %indvars.iv = phi i64 [ %indvars.iv.next, %63 ], [ 0, %1 ]
  %6 = phi ptr [ %64, %63 ], [ %3, %1 ]
  %.02557 = phi i32 [ %.1, %63 ], [ 0, %1 ]
  %.02655 = phi ptr [ %.127, %63 ], [ null, %1 ]
  %7 = getelementptr i8, ptr %6, i64 8
  %.val39.val = load ptr, ptr %7, align 8, !tbaa !28
  %8 = getelementptr inbounds nuw ptr, ptr %.val39.val, i64 %indvars.iv
  %9 = load ptr, ptr %8, align 8, !tbaa !29
  %10 = getelementptr i8, ptr %9, i64 20
  %.val38 = load i32, ptr %10, align 4
  %11 = and i32 %.val38, 15
  %.not = icmp eq i32 %11, 8
  br i1 %.not, label %12, label %63

12:                                               ; preds = %.lr.ph
  %.val36 = load ptr, ptr %9, align 8, !tbaa !73
  %13 = getelementptr i8, ptr %9, i64 32
  %.val37 = load ptr, ptr %13, align 8, !tbaa !74
  %14 = getelementptr i8, ptr %.val36, i64 32
  %.val36.val = load ptr, ptr %14, align 8, !tbaa !25
  %.val37.val = load i32, ptr %.val37, align 4, !tbaa !54
  %15 = getelementptr i8, ptr %.val36.val, i64 8
  %.val36.val.val = load ptr, ptr %15, align 8, !tbaa !28
  %16 = sext i32 %.val37.val to i64
  %17 = getelementptr inbounds ptr, ptr %.val36.val.val, i64 %16
  %18 = load ptr, ptr %17, align 8, !tbaa !29
  %19 = tail call i32 @Abc_NtkCheckConstant_rec(ptr noundef %18)
  switch i32 %19, label %default.unreachable62 [
    i32 -1, label %63
    i32 1, label %20
    i32 0, label %22
  ]

20:                                               ; preds = %12
  %21 = getelementptr i8, ptr %9, i64 56
  %.val40 = load ptr, ptr %21, align 8, !tbaa !30
  %.not52 = icmp eq ptr %.val40, inttoptr (i64 1 to ptr)
  br i1 %.not52, label %24, label %38

22:                                               ; preds = %12
  %23 = getelementptr i8, ptr %9, i64 56
  %.val41 = load ptr, ptr %23, align 8, !tbaa !30
  %.not51 = icmp eq ptr %.val41, inttoptr (i64 2 to ptr)
  br i1 %.not51, label %24, label %38

24:                                               ; preds = %22, %20
  %.val42 = phi i32 [ 2, %22 ], [ 1, %20 ]
  %25 = icmp eq ptr %.02655, null
  br i1 %25, label %63, label %26

26:                                               ; preds = %24
  %27 = getelementptr i8, ptr %.02655, i64 56
  %.026.val = load ptr, ptr %27, align 8, !tbaa !30
  %28 = ptrtoint ptr %.026.val to i64
  %29 = trunc i64 %28 to i32
  %.not31 = icmp eq i32 %.val42, %29
  %.026.val45 = load ptr, ptr %.02655, align 8, !tbaa !73
  %30 = getelementptr i8, ptr %.02655, i64 48
  %.026.val46 = load ptr, ptr %30, align 8, !tbaa !92
  %31 = getelementptr i8, ptr %.026.val45, i64 32
  %.026.val45.val = load ptr, ptr %31, align 8, !tbaa !25
  %.026.val46.val = load i32, ptr %.026.val46, align 4, !tbaa !54
  %32 = getelementptr i8, ptr %.026.val45.val, i64 8
  %.026.val45.val.val = load ptr, ptr %32, align 8, !tbaa !28
  %33 = sext i32 %.026.val46.val to i64
  %34 = getelementptr inbounds ptr, ptr %.026.val45.val.val, i64 %33
  %35 = load ptr, ptr %34, align 8, !tbaa !29
  br i1 %.not31, label %50, label %36

36:                                               ; preds = %26
  %37 = tail call ptr @Abc_NtkCreateNodeInv(ptr noundef nonnull %0, ptr noundef %35) #11
  br label %50

default.unreachable62:                            ; preds = %12
  unreachable

38:                                               ; preds = %20, %22
  %.val34 = load ptr, ptr %9, align 8, !tbaa !73
  %.val35 = load ptr, ptr %13, align 8, !tbaa !74
  %39 = getelementptr i8, ptr %.val34, i64 32
  %.val34.val = load ptr, ptr %39, align 8, !tbaa !25
  %.val35.val = load i32, ptr %.val35, align 4, !tbaa !54
  %40 = getelementptr i8, ptr %.val34.val, i64 8
  %.val34.val.val = load ptr, ptr %40, align 8, !tbaa !28
  %41 = sext i32 %.val35.val to i64
  %42 = getelementptr inbounds ptr, ptr %.val34.val.val, i64 %41
  %43 = load ptr, ptr %42, align 8, !tbaa !29
  %.val32 = load ptr, ptr %43, align 8, !tbaa !73
  %44 = getelementptr i8, ptr %43, i64 32
  %.val33 = load ptr, ptr %44, align 8, !tbaa !74
  %45 = getelementptr i8, ptr %.val32, i64 32
  %.val32.val = load ptr, ptr %45, align 8, !tbaa !25
  %.val33.val = load i32, ptr %.val33, align 4, !tbaa !54
  %46 = getelementptr i8, ptr %.val32.val, i64 8
  %.val32.val.val = load ptr, ptr %46, align 8, !tbaa !28
  %47 = sext i32 %.val33.val to i64
  %48 = getelementptr inbounds ptr, ptr %.val32.val.val, i64 %47
  %49 = load ptr, ptr %48, align 8, !tbaa !29
  br label %50

50:                                               ; preds = %26, %36, %38
  %.024 = phi ptr [ %37, %36 ], [ %49, %38 ], [ %35, %26 ]
  %.val47 = load ptr, ptr %9, align 8, !tbaa !73
  %51 = getelementptr i8, ptr %9, i64 48
  %.val48 = load ptr, ptr %51, align 8, !tbaa !92
  %52 = getelementptr i8, ptr %.val47, i64 32
  %.val47.val = load ptr, ptr %52, align 8, !tbaa !25
  %.val48.val = load i32, ptr %.val48, align 4, !tbaa !54
  %53 = getelementptr i8, ptr %.val47.val, i64 8
  %.val47.val.val = load ptr, ptr %53, align 8, !tbaa !28
  %54 = sext i32 %.val48.val to i64
  %55 = getelementptr inbounds ptr, ptr %.val47.val.val, i64 %54
  %56 = load ptr, ptr %55, align 8, !tbaa !29
  tail call void @Abc_ObjTransferFanout(ptr noundef %56, ptr noundef %.024) #11
  %.val49 = load ptr, ptr %9, align 8, !tbaa !73
  %.val50 = load ptr, ptr %51, align 8, !tbaa !92
  %57 = getelementptr i8, ptr %.val49, i64 32
  %.val49.val = load ptr, ptr %57, align 8, !tbaa !25
  %.val50.val = load i32, ptr %.val50, align 4, !tbaa !54
  %58 = getelementptr i8, ptr %.val49.val, i64 8
  %.val49.val.val = load ptr, ptr %58, align 8, !tbaa !28
  %59 = sext i32 %.val50.val to i64
  %60 = getelementptr inbounds ptr, ptr %.val49.val.val, i64 %59
  %61 = load ptr, ptr %60, align 8, !tbaa !29
  tail call void @Abc_NtkDeleteObj_rec(ptr noundef %61, i32 noundef 0) #11
  %62 = add nsw i32 %.02557, 1
  br label %63

63:                                               ; preds = %24, %12, %50, %.lr.ph
  %.127 = phi ptr [ %.02655, %12 ], [ %.02655, %50 ], [ %.02655, %.lr.ph ], [ %9, %24 ]
  %.1 = phi i32 [ %.02557, %12 ], [ %62, %50 ], [ %.02557, %.lr.ph ], [ %.02557, %24 ]
  %indvars.iv.next = add nuw nsw i64 %indvars.iv, 1
  %64 = load ptr, ptr %2, align 8, !tbaa !91
  %65 = getelementptr i8, ptr %64, i64 4
  %.val = load i32, ptr %65, align 4, !tbaa !26
  %66 = sext i32 %.val to i64
  %67 = icmp slt i64 %indvars.iv.next, %66
  br i1 %67, label %.lr.ph, label %.critedge, !llvm.loop !93

.critedge:                                        ; preds = %63, %1
  %.025.lcssa = phi i32 [ 0, %1 ], [ %.1, %63 ]
  ret i32 %.025.lcssa
}